target datalayout = "e-m:e-p270:32:32-p271:32:32-p272:64:64-i64:64-i128:128-f80:128-n8:16:32:64-S128"
target triple = "x86_64-pc-linux-gnu"

%"class.sat::literal" = type { i32 }
%"struct.nlsat::interval" = type { i8, %"class.sat::literal", ptr, %"class.algebraic_numbers::anum", %"class.algebraic_numbers::anum" }
%"class.algebraic_numbers::anum" = type { ptr }
%"class.nlsat::interval_set_manager" = type <{ ptr, ptr, %class.svector, %class.random_gen, [4 x i8] }>
%class.svector = type { %class.vector }
%class.vector = type { ptr }
%class.random_gen = type { i32 }
%"class.nlsat::interval_set" = type { i32, i32, [0 x %"struct.nlsat::interval"] }

; Function Attrs: mustprogress nounwind uwtable
define linkonce_odr hidden noundef i32 @_ZN5nlsat12interval_set12get_obj_sizeEj(i32 noundef %0) #4 comdat align 2 {
  %2 = alloca i32, align 4
  store i32 %0, ptr %2, align 4, !tbaa !8
  %3 = load i32, ptr %2, align 4, !tbaa !8
  %4 = zext i32 %3 to i64
  %5 = mul i64 %4, 32
  %6 = add i64 8, %5
  %7 = trunc i64 %6 to i32
  ret i32 %7
}

; Function Attrs: mustprogress uwtable
define hidden void @_ZN5nlsat20interval_set_manager3delEPNS_12interval_setE(ptr noundef nonnull align 8 dereferenceable(28) %0, ptr noundef %1) #6 align 2 {
  %3 = alloca ptr, align 8
  %4 = alloca ptr, align 8
  %5 = alloca i32, align 4
  %6 = alloca i32, align 4
  %7 = alloca i32, align 4
  store ptr %0, ptr %3, align 8, !tbaa !28
  store ptr %1, ptr %4, align 8, !tbaa !40
  %8 = load ptr, ptr %3, align 8
  %9 = load ptr, ptr %4, align 8, !tbaa !40
  %10 = icmp eq ptr %9, null
  br i1 %10, label %11, label %12

11:                                               ; preds = %2
  br label %49

12:                                               ; preds = %2
  call void @llvm.lifetime.start.p0(i64 4, ptr %5) #3
  %13 = load ptr, ptr %4, align 8, !tbaa !40
  %14 = getelementptr inbounds nuw %"class.nlsat::interval_set", ptr %13, i32 0, i32 0
  %15 = load i32, ptr %14, align 8, !tbaa !42
  store i32 %15, ptr %5, align 4, !tbaa !8
  call void @llvm.lifetime.start.p0(i64 4, ptr %6) #3
  %16 = load i32, ptr %5, align 4, !tbaa !8
  %17 = call noundef i32 @_ZN5nlsat12interval_set12get_obj_sizeEj(i32 noundef %16)
  store i32 %17, ptr %6, align 4, !tbaa !8
  call void @llvm.lifetime.start.p0(i64 4, ptr %7) #3
  store i32 0, ptr %7, align 4, !tbaa !8
  br label %18

18:                                               ; preds = %40, %12
  %19 = load i32, ptr %7, align 4, !tbaa !8
  %20 = load i32, ptr %5, align 4, !tbaa !8
  %21 = icmp ult i32 %19, %20
  br i1 %21, label %23, label %22

22:                                               ; preds = %18
  call void @llvm.lifetime.end.p0(i64 4, ptr %7) #3
  br label %43

23:                                               ; preds = %18
  %24 = getelementptr inbounds nuw %"class.nlsat::interval_set_manager", ptr %8, i32 0, i32 0
  %25 = load ptr, ptr %24, align 8, !tbaa !44
  %26 = load ptr, ptr %4, align 8, !tbaa !40
  %27 = getelementptr inbounds nuw %"class.nlsat::interval_set", ptr %26, i32 0, i32 2
  %28 = load i32, ptr %7, align 4, !tbaa !8
  %29 = zext i32 %28 to i64
  %30 = getelementptr inbounds nuw [0 x %"struct.nlsat::interval"], ptr %27, i64 0, i64 %29
  %31 = getelementptr inbounds nuw %"struct.nlsat::interval", ptr %30, i32 0, i32 3
  call void @_ZN17algebraic_numbers7manager3delERNS_4anumE(ptr noundef nonnull align 8 dereferenceable(17) %25, ptr noundef nonnull align 8 dereferenceable(8) %31)
  %32 = getelementptr inbounds nuw %"class.nlsat::interval_set_manager", ptr %8, i32 0, i32 0
  %33 = load ptr, ptr %32, align 8, !tbaa !44
  %34 = load ptr, ptr %4, align 8, !tbaa !40
  %35 = getelementptr inbounds nuw %"class.nlsat::interval_set", ptr %34, i32 0, i32 2
  %36 = load i32, ptr %7, align 4, !tbaa !8
  %37 = zext i32 %36 to i64
  %38 = getelementptr inbounds nuw [0 x %"struct.nlsat::interval"], ptr %35, i64 0, i64 %37
  %39 = getelementptr inbounds nuw %"struct.nlsat::interval", ptr %38, i32 0, i32 4
  call void @_ZN17algebraic_numbers7manager3delERNS_4anumE(ptr noundef nonnull align 8 dereferenceable(17) %33, ptr noundef nonnull align 8 dereferenceable(8) %39)
  br label %40

40:                                               ; preds = %23
  %41 = load i32, ptr %7, align 4, !tbaa !8
  %42 = add i32 %41, 1
  store i32 %42, ptr %7, align 4, !tbaa !8
  br label %18, !llvm.loop !48

43:                                               ; preds = %22
  %44 = getelementptr inbounds nuw %"class.nlsat::interval_set_manager", ptr %8, i32 0, i32 1
  %45 = load ptr, ptr %44, align 8, !tbaa !50
  %46 = load i32, ptr %6, align 4, !tbaa !8
  %47 = zext i32 %46 to i64
  %48 = load ptr, ptr %4, align 8, !tbaa !40
  call void @_ZN22small_object_allocator10deallocateEmPv(ptr noundef nonnull align 8 dereferenceable(520) %45, i64 noundef %47, ptr noundef %48)
  call void @llvm.lifetime.end.p0(i64 4, ptr %6) #3
  call void @llvm.lifetime.end.p0(i64 4, ptr %5) #3
  br label %49

49:                                               ; preds = %43, %11
  ret void
}

; Function Attrs: mustprogress uwtable
define hidden void @_ZN5nlsat20interval_set_manager7dec_refEPNS_12interval_setE(ptr noundef nonnull align 8 dereferenceable(28) %0, ptr noundef %1) #6 align 2 {
  %3 = alloca ptr, align 8
  %4 = alloca ptr, align 8
  store ptr %0, ptr %3, align 8, !tbaa !28
  store ptr %1, ptr %4, align 8, !tbaa !40
  %5 = load ptr, ptr %3, align 8
  %6 = load ptr, ptr %4, align 8, !tbaa !40
  %7 = getelementptr inbounds nuw %"class.nlsat::interval_set", ptr %6, i32 0, i32 1
  %8 = load i32, ptr %7, align 4
  %9 = and i32 %8, 2147483647
  %10 = add i32 %9, -1
  %11 = load i32, ptr %7, align 4
  %12 = and i32 %10, 2147483647
  %13 = and i32 %11, -2147483648
  %14 = or i32 %13, %12
  store i32 %14, ptr %7, align 4
  %15 = load ptr, ptr %4, align 8, !tbaa !40
  %16 = getelementptr inbounds nuw %"class.nlsat::interval_set", ptr %15, i32 0, i32 1
  %17 = load i32, ptr %16, align 4
  %18 = and i32 %17, 2147483647
  %19 = icmp eq i32 %18, 0
  br i1 %19, label %20, label %22

20:                                               ; preds = %2
  %21 = load ptr, ptr %4, align 8, !tbaa !40
  call void @_ZN5nlsat20interval_set_manager3delEPNS_12interval_setE(ptr noundef nonnull align 8 dereferenceable(28) %5, ptr noundef %21)
  br label %22

22:                                               ; preds = %20, %2
  ret void
}